; Function Attrs: mustprogress nofree norecurse nosync nounwind willreturn memory(argmem: write) uwtable
define hidden range(i32 0, 2) i32 @opj_set_error_handler(ptr noundef writeonly %0, ptr noundef %1, ptr noundef %2) local_unnamed_addr #0 {
  %.not = icmp eq ptr %0, null
  br i1 %.not, label %7, label %4

4:                                                ; preds = %3
  %5 = getelementptr inbounds nuw i8, ptr %0, i64 104
  %6 = getelementptr inbounds nuw i8, ptr %0, i64 128
  store ptr %1, ptr %6, align 8, !tbaa !13
  store ptr %2, ptr %5, align 8, !tbaa !14
  br label %7

7:                                                ; preds = %3, %4
  %.0 = phi i32 [ 1, %4 ], [ 0, %3 ]
  ret i32 %.0
}